target datalayout = "e-m:e-p270:32:32-p271:32:32-p272:64:64-i64:64-i128:128-f80:128-n8:16:32:64-S128"
target triple = "x86_64-pc-linux-gnu"

%struct._packet_info = type { ptr, ptr, i32, i32, %struct.nstime_t, %struct.nstime_t, %struct.nstime_t, i8, ptr, ptr, ptr, ptr, %struct._address, %struct._address, %struct._address, %struct._address, %struct._address, %struct._address, i32, ptr, i8, [3 x i8], %struct.anon, i32, i32, i32, i32, ptr, i8, ptr, ptr, i16, i16, i32, i32, i16, i32, i32, ptr, ptr, ptr, i8, i8, i16, i16, i16, i32, i16, i16, ptr, ptr, ptr, ptr, ptr, i32, i32 }
%struct.nstime_t = type { i64, i32 }
%struct._address = type { i32, i32, ptr, ptr }
%struct.anon = type { i8, [3 x i8] }
%struct._ndmp_conv_data_t = type { i8, ptr, ptr, ptr, ptr, ptr, ptr }
%struct._ndmp_task_data_t = type { i32, i32, %struct.nstime_t, ptr }
%struct._itlq_nexus_t = type { i32, i32, i16, i16, i16, i16, i32, i32, i32, %struct.nstime_t, %struct.nstime_t, ptr }
%struct._itl_nexus_t = type { i8, ptr }

@ett_ndmp_execute_cdb_payload = internal global i32 0, align 4
@top_tree = internal global ptr null, align 8
@ndmp_conv_data = internal global ptr null, align 8

; Function Attrs: null_pointer_is_valid sspstrong uwtable
define internal ptr @get_itl_nexus(ptr noundef %0, i1 noundef zeroext %1) #0 {
  %3 = alloca ptr, align 8
  %4 = alloca i8, align 1
  %5 = alloca ptr, align 8
  store ptr %0, ptr %3, align 8
  %6 = zext i1 %1 to i8
  store i8 %6, ptr %4, align 1
  call void @llvm.lifetime.start.p0(i64 8, ptr %5) #9
  %7 = load i8, ptr %4, align 1, !range !6, !noundef !7
  %8 = trunc i8 %7 to i1
  br i1 %8, label %18, label %9

9:                                                ; preds = %2
  %10 = load ptr, ptr @ndmp_conv_data, align 8
  %11 = getelementptr inbounds nuw %struct._ndmp_conv_data_t, ptr %10, i32 0, i32 2
  %12 = load ptr, ptr %11, align 8
  %13 = load ptr, ptr %3, align 8
  %14 = getelementptr inbounds nuw %struct._packet_info, ptr %13, i32 0, i32 3
  %15 = load i32, ptr %14, align 4
  %16 = call ptr @wmem_tree_lookup32_le(ptr noundef %12, i32 noundef %15)
  store ptr %16, ptr %5, align 8
  %17 = icmp ne ptr %16, null
  br i1 %17, label %35, label %18

18:                                               ; preds = %9, %2
  %19 = call ptr @wmem_file_scope()
  %20 = call noalias ptr @wmem_alloc(ptr noundef %19, i64 noundef 16) #10
  store ptr %20, ptr %5, align 8
  %21 = load ptr, ptr %5, align 8
  %22 = getelementptr inbounds nuw %struct._itl_nexus_t, ptr %21, i32 0, i32 0
  store i8 -1, ptr %22, align 8
  %23 = load ptr, ptr @ndmp_conv_data, align 8
  %24 = getelementptr inbounds nuw %struct._ndmp_conv_data_t, ptr %23, i32 0, i32 6
  %25 = load ptr, ptr %24, align 8
  %26 = load ptr, ptr %5, align 8
  %27 = getelementptr inbounds nuw %struct._itl_nexus_t, ptr %26, i32 0, i32 1
  store ptr %25, ptr %27, align 8
  %28 = load ptr, ptr @ndmp_conv_data, align 8
  %29 = getelementptr inbounds nuw %struct._ndmp_conv_data_t, ptr %28, i32 0, i32 2
  %30 = load ptr, ptr %29, align 8
  %31 = load ptr, ptr %3, align 8
  %32 = getelementptr inbounds nuw %struct._packet_info, ptr %31, i32 0, i32 3
  %33 = load i32, ptr %32, align 4
  %34 = load ptr, ptr %5, align 8
  call void @wmem_tree_insert32(ptr noundef %30, i32 noundef %33, ptr noundef %34)
  br label %35

35:                                               ; preds = %18, %9
  %36 = load ptr, ptr %5, align 8
  call void @llvm.lifetime.end.p0(i64 8, ptr %5) #9
  ret ptr %36
}

; Function Attrs: null_pointer_is_valid sspstrong uwtable
define internal i32 @dissect_execute_cdb_payload(ptr noundef %0, i32 noundef %1, ptr noundef %2, ptr noundef %3, ptr noundef %4, i32 noundef %5, i1 noundef zeroext %6) #0 {
  %8 = alloca ptr, align 8
  %9 = alloca i32, align 4
  %10 = alloca ptr, align 8
  %11 = alloca ptr, align 8
  %12 = alloca ptr, align 8
  %13 = alloca i32, align 4
  %14 = alloca i8, align 1
  %15 = alloca ptr, align 8
  %16 = alloca i32, align 4
  %17 = alloca i32, align 4
  %18 = alloca ptr, align 8
  %19 = alloca i32, align 4
  %20 = alloca i32, align 4
  store ptr %0, ptr %8, align 8
  store i32 %1, ptr %9, align 4
  store ptr %2, ptr %10, align 8
  store ptr %3, ptr %11, align 8
  store ptr %4, ptr %12, align 8
  store i32 %5, ptr %13, align 4
  %21 = zext i1 %6 to i8
  store i8 %21, ptr %14, align 1
  call void @llvm.lifetime.start.p0(i64 8, ptr %15) #9
  call void @llvm.lifetime.start.p0(i64 4, ptr %16) #9
  call void @llvm.lifetime.start.p0(i64 4, ptr %17) #9
  %22 = load ptr, ptr %8, align 8
  %23 = load i32, ptr %9, align 4
  %24 = call i32 @tvb_get_ntohl(ptr noundef %22, i32 noundef %23)
  store i32 %24, ptr %16, align 4
  %25 = load i32, ptr %16, align 4
  %26 = call i32 @rpc_roundup(i32 noundef %25)
  store i32 %26, ptr %17, align 4
  %27 = load ptr, ptr %11, align 8
  %28 = load ptr, ptr %8, align 8
  %29 = load i32, ptr %9, align 4
  %30 = load i32, ptr %17, align 4
  %31 = add i32 4, %30
  %32 = load i32, ptr @ett_ndmp_execute_cdb_payload, align 4
  %33 = load ptr, ptr %12, align 8
  %34 = call ptr @proto_tree_add_subtree(ptr noundef %27, ptr noundef %28, i32 noundef %29, i32 noundef %31, i32 noundef %32, ptr noundef null, ptr noundef %33)
  store ptr %34, ptr %15, align 8
  %35 = load ptr, ptr %15, align 8
  %36 = load i32, ptr %13, align 4
  %37 = load ptr, ptr %8, align 8
  %38 = load i32, ptr %9, align 4
  %39 = load i32, ptr %16, align 4
  %40 = call ptr @proto_tree_add_uint(ptr noundef %35, i32 noundef %36, ptr noundef %37, i32 noundef %38, i32 noundef 4, i32 noundef %39)
  %41 = load i32, ptr %9, align 4
  %42 = add i32 %41, 4
  store i32 %42, ptr %9, align 4
  %43 = load i32, ptr %16, align 4
  %44 = icmp sgt i32 %43, 0
  br i1 %44, label %45, label %117

45:                                               ; preds = %7
  call void @llvm.lifetime.start.p0(i64 8, ptr %18) #9
  call void @llvm.lifetime.start.p0(i64 4, ptr %19) #9
  call void @llvm.lifetime.start.p0(i64 4, ptr %20) #9
  %46 = load ptr, ptr %8, align 8
  %47 = load i32, ptr %9, align 4
  %48 = call i32 @tvb_captured_length_remaining(ptr noundef %46, i32 noundef %47)
  store i32 %48, ptr %19, align 4
  %49 = load i32, ptr %19, align 4
  %50 = load i32, ptr %16, align 4
  %51 = icmp sgt i32 %49, %50
  br i1 %51, label %52, label %54

52:                                               ; preds = %45
  %53 = load i32, ptr %16, align 4
  store i32 %53, ptr %19, align 4
  br label %54

54:                                               ; preds = %52, %45
  %55 = load ptr, ptr %8, align 8
  %56 = load i32, ptr %9, align 4
  %57 = call i32 @tvb_reported_length_remaining(ptr noundef %55, i32 noundef %56)
  store i32 %57, ptr %20, align 4
  %58 = load i32, ptr %20, align 4
  %59 = load i32, ptr %16, align 4
  %60 = icmp sgt i32 %58, %59
  br i1 %60, label %61, label %63

61:                                               ; preds = %54
  %62 = load i32, ptr %16, align 4
  store i32 %62, ptr %20, align 4
  br label %63

63:                                               ; preds = %61, %54
  %64 = load ptr, ptr %8, align 8
  %65 = load i32, ptr %9, align 4
  %66 = load i32, ptr %19, align 4
  %67 = load i32, ptr %20, align 4
  %68 = call ptr @tvb_new_subset_length_caplen(ptr noundef %64, i32 noundef %65, i32 noundef %66, i32 noundef %67)
  store ptr %68, ptr %18, align 8
  %69 = load ptr, ptr @ndmp_conv_data, align 8
  %70 = getelementptr inbounds nuw %struct._ndmp_conv_data_t, ptr %69, i32 0, i32 5
  %71 = load ptr, ptr %70, align 8
  %72 = icmp ne ptr %71, null
  br i1 %72, label %73, label %113

73:                                               ; preds = %63
  %74 = load ptr, ptr @ndmp_conv_data, align 8
  %75 = getelementptr inbounds nuw %struct._ndmp_conv_data_t, ptr %74, i32 0, i32 5
  %76 = load ptr, ptr %75, align 8
  %77 = getelementptr inbounds nuw %struct._ndmp_task_data_t, ptr %76, i32 0, i32 3
  %78 = load ptr, ptr %77, align 8
  %79 = icmp ne ptr %78, null
  br i1 %79, label %80, label %113

80:                                               ; preds = %73
  %81 = load ptr, ptr @ndmp_conv_data, align 8
  %82 = getelementptr inbounds nuw %struct._ndmp_conv_data_t, ptr %81, i32 0, i32 5
  %83 = load ptr, ptr %82, align 8
  %84 = getelementptr inbounds nuw %struct._ndmp_task_data_t, ptr %83, i32 0, i32 3
  %85 = load ptr, ptr %84, align 8
  %86 = getelementptr inbounds nuw %struct._itlq_nexus_t, ptr %85, i32 0, i32 5
  store i16 3, ptr %86, align 2
  %87 = load i32, ptr %16, align 4
  %88 = load ptr, ptr @ndmp_conv_data, align 8
  %89 = getelementptr inbounds nuw %struct._ndmp_conv_data_t, ptr %88, i32 0, i32 5
  %90 = load ptr, ptr %89, align 8
  %91 = getelementptr inbounds nuw %struct._ndmp_task_data_t, ptr %90, i32 0, i32 3
  %92 = load ptr, ptr %91, align 8
  %93 = getelementptr inbounds nuw %struct._itlq_nexus_t, ptr %92, i32 0, i32 6
  store i32 %87, ptr %93, align 8
  %94 = load i32, ptr %16, align 4
  %95 = load ptr, ptr @ndmp_conv_data, align 8
  %96 = getelementptr inbounds nuw %struct._ndmp_conv_data_t, ptr %95, i32 0, i32 5
  %97 = load ptr, ptr %96, align 8
  %98 = getelementptr inbounds nuw %struct._ndmp_task_data_t, ptr %97, i32 0, i32 3
  %99 = load ptr, ptr %98, align 8
  %100 = getelementptr inbounds nuw %struct._itlq_nexus_t, ptr %99, i32 0, i32 7
  store i32 %94, ptr %100, align 4
  %101 = load ptr, ptr %18, align 8
  %102 = load ptr, ptr %10, align 8
  %103 = load ptr, ptr @top_tree, align 8
  %104 = load i8, ptr %14, align 1, !range !6, !noundef !7
  %105 = trunc i8 %104 to i1
  %106 = load ptr, ptr @ndmp_conv_data, align 8
  %107 = getelementptr inbounds nuw %struct._ndmp_conv_data_t, ptr %106, i32 0, i32 5
  %108 = load ptr, ptr %107, align 8
  %109 = getelementptr inbounds nuw %struct._ndmp_task_data_t, ptr %108, i32 0, i32 3
  %110 = load ptr, ptr %109, align 8
  %111 = load ptr, ptr %10, align 8
  %112 = call ptr @get_itl_nexus(ptr noundef %111, i1 noundef zeroext false)
  call void @dissect_scsi_payload(ptr noundef %101, ptr noundef %102, ptr noundef %103, i1 noundef zeroext %105, ptr noundef %110, ptr noundef %112, i32 noundef 0)
  br label %113

113:                                              ; preds = %80, %73, %63
  %114 = load i32, ptr %17, align 4
  %115 = load i32, ptr %9, align 4
  %116 = add i32 %115, %114
  store i32 %116, ptr %9, align 4
  call void @llvm.lifetime.end.p0(i64 4, ptr %20) #9
  call void @llvm.lifetime.end.p0(i64 4, ptr %19) #9
  call void @llvm.lifetime.end.p0(i64 8, ptr %18) #9
  br label %117

117:                                              ; preds = %113, %7
  %118 = load i32, ptr %9, align 4
  call void @llvm.lifetime.end.p0(i64 4, ptr %17) #9
  call void @llvm.lifetime.end.p0(i64 4, ptr %16) #9
  call void @llvm.lifetime.end.p0(i64 8, ptr %15) #9
  ret i32 %118
}