; Function Attrs: null_pointer_is_valid sspstrong uwtable
define internal fastcc i32 @dissect_execute_cdb_payload(ptr noundef %0, i32 noundef %1, ptr noundef %2, ptr noundef %3, ptr noundef %4, i32 noundef %5, i1 noundef zeroext %6) unnamed_addr #0 {
  %8 = tail call i32 @tvb_get_ntohl(ptr noundef %0, i32 noundef %1)
  %9 = tail call i32 @rpc_roundup(i32 noundef %8)
  %10 = add i32 %9, 4
  %11 = load i32, ptr @ett_ndmp_execute_cdb_payload, align 4
  %12 = tail call ptr @proto_tree_add_subtree(ptr noundef %3, ptr noundef %0, i32 noundef %1, i32 noundef %10, i32 noundef %11, ptr noundef null, ptr noundef %4)
  %13 = tail call ptr @proto_tree_add_uint(ptr noundef %12, i32 noundef %5, ptr noundef %0, i32 noundef %1, i32 noundef 4, i32 noundef %8)
  %14 = add i32 %1, 4
  %15 = icmp sgt i32 %8, 0
  br i1 %15, label %16, label %57

16:                                               ; preds = %7
  %17 = tail call i32 @tvb_captured_length_remaining(ptr noundef %0, i32 noundef %14)
  %spec.select = tail call i32 @llvm.smin.i32(i32 %17, i32 %8)
  %18 = tail call i32 @tvb_reported_length_remaining(ptr noundef %0, i32 noundef %14)
  %.0 = tail call i32 @llvm.smin.i32(i32 %18, i32 %8)
  %19 = tail call ptr @tvb_new_subset_length_caplen(ptr noundef %0, i32 noundef %14, i32 noundef %spec.select, i32 noundef %.0)
  %20 = load ptr, ptr @ndmp_conv_data, align 8
  %21 = getelementptr inbounds nuw i8, ptr %20, i64 40
  %22 = load ptr, ptr %21, align 8
  %.not = icmp eq ptr %22, null
  br i1 %.not, label %55, label %23

23:                                               ; preds = %16
  %24 = getelementptr inbounds nuw i8, ptr %22, i64 24
  %25 = load ptr, ptr %24, align 8
  %.not44 = icmp eq ptr %25, null
  br i1 %.not44, label %55, label %26

26:                                               ; preds = %23
  %27 = getelementptr inbounds nuw i8, ptr %25, i64 14
  store i16 3, ptr %27, align 2
  %28 = load ptr, ptr %21, align 8
  %29 = getelementptr inbounds nuw i8, ptr %28, i64 24
  %30 = load ptr, ptr %29, align 8
  %31 = getelementptr inbounds nuw i8, ptr %30, i64 16
  store i32 %8, ptr %31, align 8
  %32 = load ptr, ptr %21, align 8
  %33 = getelementptr inbounds nuw i8, ptr %32, i64 24
  %34 = load ptr, ptr %33, align 8
  %35 = getelementptr inbounds nuw i8, ptr %34, i64 20
  store i32 %8, ptr %35, align 4
  %36 = load ptr, ptr @top_tree, align 8
  %37 = load ptr, ptr %21, align 8
  %38 = getelementptr inbounds nuw i8, ptr %37, i64 24
  %39 = load ptr, ptr %38, align 8
  %40 = getelementptr inbounds nuw i8, ptr %20, i64 16
  %41 = load ptr, ptr %40, align 8
  %42 = getelementptr inbounds nuw i8, ptr %2, i64 20
  %43 = load i32, ptr %42, align 4
  %44 = tail call ptr @wmem_tree_lookup32_le(ptr noundef %41, i32 noundef %43)
  %.not.i = icmp eq ptr %44, null
  br i1 %.not.i, label %45, label %get_itl_nexus.exit

45:                                               ; preds = %26
  %46 = tail call ptr @wmem_file_scope()
  %47 = tail call noalias dereferenceable_or_null(16) ptr @wmem_alloc(ptr noundef %46, i64 noundef 16) #8
  store i8 -1, ptr %47, align 8
  %48 = load ptr, ptr @ndmp_conv_data, align 8
  %49 = getelementptr inbounds nuw i8, ptr %48, i64 48
  %50 = load ptr, ptr %49, align 8
  %51 = getelementptr inbounds nuw i8, ptr %47, i64 8
  store ptr %50, ptr %51, align 8
  %52 = getelementptr inbounds nuw i8, ptr %48, i64 16
  %53 = load ptr, ptr %52, align 8
  %54 = load i32, ptr %42, align 4
  tail call void @wmem_tree_insert32(ptr noundef %53, i32 noundef %54, ptr noundef %47)
  br label %get_itl_nexus.exit

get_itl_nexus.exit:                               ; preds = %26, %45
  %.0.i = phi ptr [ %47, %45 ], [ %44, %26 ]
  tail call void @dissect_scsi_payload(ptr noundef %19, ptr noundef %2, ptr noundef %36, i1 noundef zeroext %6, ptr noundef %39, ptr noundef %.0.i, i32 noundef 0)
  br label %55

55:                                               ; preds = %get_itl_nexus.exit, %23, %16
  %56 = add i32 %9, %14
  br label %57

57:                                               ; preds = %55, %7
  %.038 = phi i32 [ %56, %55 ], [ %14, %7 ]
  ret i32 %.038
}